Certificate:
    Data:
        Version: 3 (0x2)
        Serial Number: 1 (0x1)
        Signature Algorithm: sha1WithRSAEncryption
        Issuer: CN=younix openvpn 20150729 certificate authority/emailAddress=mrled@younix.us, C=US, O=minipki
        Validity
            Not Before: Jul 29 22:12:51 2015 GMT
            Not After : Jul 24 22:12:51 2035 GMT
        Subject: C=US, ST=., O=., CN=micah/emailAddress=mrled@younix.us
        Subject Public Key Info:
            Public Key Algorithm: rsaEncryption
            RSA Public Key: (4096 bit)
                Modulus (4096 bit):
                    00:d3:52:4c:27:db:b4:07:a8:73:5e:b7:82:d7:c6:
                    00:e0:60:1a:00:1d:de:91:a9:72:16:35:3f:73:a3:
                    fa:21:b6:05:60:87:a0:08:39:7a:9d:d7:9a:bb:a6:
                    04:17:54:eb:25:21:fb:c3:57:44:84:7e:fc:82:16:
                    fb:30:54:44:6f:85:1f:d5:e9:91:d8:23:9e:04:62:
                    80:2d:6f:3a:eb:9a:78:c0:35:fb:c9:4f:cf:50:80:
                    54:1f:a1:f8:18:00:f0:df:d0:1d:b2:01:30:2f:37:
                    4f:35:6d:ee:a9:65:a3:2f:2f:12:58:70:78:1a:5d:
                    b5:d8:97:3a:f9:d8:b6:43:f5:ea:6d:2c:8d:a5:ea:
                    b7:c5:cc:49:a2:d5:19:01:93:a5:82:6d:f6:ff:82:
                    5a:67:33:5b:06:26:18:ca:cd:2a:f7:51:30:38:16:
                    95:2c:e8:98:66:d6:50:d9:e1:8e:61:45:f6:e4:00:
                    b5:6c:07:25:1d:fc:bf:5b:dd:f3:b1:35:dc:6c:c5:
                    7f:20:cd:05:5f:df:e2:dd:2a:fe:de:6b:85:71:c1:
                    97:91:ff:c7:f7:08:2c:ce:40:b1:5f:43:3f:60:e5:
                    f5:a6:58:0a:ae:7d:1f:3f:ff:02:8a:f2:76:d7:19:
                    99:69:b7:86:1d:62:91:b0:4a:2b:4e:16:4b:f2:7d:
                    01:61:2a:6f:37:e5:78:32:4d:4a:75:7f:2b:59:73:
                    51:49:36:1b:5b:68:8f:46:db:43:76:0e:5b:c0:45:
                    2a:ad:2f:65:92:e3:d7:59:b0:0b:9a:43:a2:a7:5b:
                    59:0c:0a:a6:a8:d7:e9:b4:03:41:3e:72:ee:80:aa:
                    a6:1d:7f:18:07:ef:ff:1d:1f:63:d0:10:5a:2e:05:
                    c8:49:eb:31:12:9b:24:f6:3d:5e:d3:14:a7:17:8c:
                    b8:85:c9:0a:e5:17:c5:7c:20:f9:b2:8f:93:a6:19:
                    8a:1c:ee:f4:a9:3e:c9:62:fb:a9:1c:67:91:64:eb:
                    b8:a2:8a:9f:8e:90:5f:37:cf:f9:fa:6c:89:77:b0:
                    61:5a:e7:ef:73:de:14:da:6b:b9:4f:0f:8a:fd:a6:
                    a9:16:87:ab:38:0d:4f:78:9f:bb:1c:da:e4:af:f5:
                    47:64:2a:c7:f2:9f:8a:f7:e5:02:aa:c0:1d:32:92:
                    45:ed:c6:f5:04:dc:17:10:86:91:8b:aa:5b:6a:7f:
                    93:c8:f0:e5:54:a5:96:cc:e6:fd:59:c4:32:c0:1e:
                    4c:3c:91:86:9f:22:13:db:f1:3b:9a:24:62:d4:c0:
                    ca:d2:a6:9f:b2:56:b0:52:73:f0:98:25:b0:5c:01:
                    d8:ee:29:d6:04:a6:0d:85:b3:5a:48:55:52:8e:2e:
                    80:c0:69
                Exponent: 65537 (0x10001)
        X509v3 extensions:
            X509v3 Basic Constraints: 
                CA:FALSE
            X509v3 Subject Key Identifier: 
                CB:DE:DE:E7:56:FF:D7:CF:75:69:63:0F:34:E8:47:18:BC:30:6E:E2
            X509v3 Authority Key Identifier: 
                keyid:38:25:B0:1C:B7:1B:D2:CF:23:C1:EB:82:75:8B:1B:0A:71:3D:D0:1E
                DirName:/CN=younix openvpn 20150729 certificate authority/emailAddress=mrled@younix.us/C=US/O=minipki
                serial:AF:40:B8:C5:19:27:07:9D

            Netscape Cert Type: 
                SSL Client
            X509v3 Key Usage: 
                Digital Signature, Non Repudiation, Key Encipherment
    Signature Algorithm: sha1WithRSAEncryption
        81:09:28:23:54:b4:f7:95:14:71:21:2b:37:12:be:ae:3c:69:
        4b:03:5f:0b:b2:85:75:d6:15:13:03:0d:21:4d:8f:97:4f:04:
        3e:8c:6f:3e:aa:2d:66:6a:1c:b0:29:26:cd:a2:b1:96:d5:70:
        23:d4:1c:df:eb:5f:37:e8:3e:c3:c6:4f:c0:ac:34:b0:44:3c:
        6a:27:ae:71:13:12:ea:38:04:ec:6d:ae:39:f8:e2:8c:9e:bd:
        66:dd:99:4e:ff:9e:06:9b:c2:aa:58:c7:69:c1:d0:8c:1c:c4:
        ae:31:44:77:1f:c9:70:f5:a7:06:19:29:98:dc:10:41:3b:ea:
        ee:50:da:23:a1:54:4f:42:31:1c:79:1a:90:49:20:5a:c3:c1:
        5a:42:3d:86:b4:ba:da:00:57:5e:de:19:9a:70:a0:e8:4d:4a:
        1c:3e:e4:0a:53:39:a0:93:e4:65:18:5b:e9:61:a7:f3:d9:be:
        1c:1c:19:57:ca:fd:f2:7e:0e:35:11:7d:90:9c:90:02:3f:75:
        0f:a1:8a:79:49:2e:3c:c8:45:0c:79:e2:10:36:60:48:7a:4b:
        a5:12:4f:42:a5:d3:3e:7c:cb:f1:3a:a6:85:09:ad:5e:39:35:
        c6:20:36:42:dc:f6:a3:f4:08:3b:56:c5:78:60:f7:c3:24:ce:
        8e:fd:d0:88:0e:d7:98:62:5c:85:91:49:0c:11:33:c1:99:2b:
        e6:09:13:db:57:30:24:49:2e:4c:23:2c:fa:25:92:45:f0:9c:
        d2:76:04:38:45:da:a6:db:22:cb:00:15:8c:3b:37:3a:92:2b:
        16:ad:8a:5f:2d:8a:62:20:11:51:88:2f:6a:bd:09:7e:48:e1:
        44:13:ad:40:1c:9b:c5:0d:d6:1c:8d:52:bc:fd:96:66:09:f8:
        44:49:66:21:9c:be:00:59:aa:1a:b8:a1:34:45:c2:ca:c3:d5:
        20:13:72:c6:c5:32:e7:d7:a2:e4:69:cd:74:8d:0d:9d:b8:af:
        b3:fb:17:2b:8e:44:4b:2d:da:08:a9:34:06:81:d4:f4:ff:07:
        23:b0:3d:6c:98:60:c8:0d:77:24:8d:e1:d0:cb:ad:95:0c:22:
        e7:b2:c0:77:f6:02:03:d4:18:b4:99:39:5f:04:e1:21:37:9c:
        7e:e4:07:6b:8a:f3:3d:88:08:9d:7b:38:90:90:f4:90:e3:d5:
        13:9e:4d:0c:3d:8a:8a:a7:be:aa:cc:02:e0:fb:b9:00:8d:0e:
        e0:a8:86:4a:4a:71:56:aa:fa:5d:b0:e2:36:23:db:7f:7b:69:
        ef:5e:67:cd:98:54:84:84:ed:7c:9c:a2:a2:3c:75:a9:b0:eb:
        6e:84:59:d9:33:d2:c9:6d
-----BEGIN CERTIFICATE-----
MIIGQTCCBCmgAwIBAgIBATANBgkqhkiG9w0BAQUFADB3MTYwNAYDVQQDEy15b3Vu
aXggb3BlbnZwbiAyMDE1MDcyOSBjZXJ0aWZpY2F0ZSBhdXRob3JpdHkxHjAcBgkq
hkiG9w0BCQEWD21ybGVkQHlvdW5peC51czELMAkGA1UEBhMCVVMxEDAOBgNVBAoT
B21pbmlwa2kwHhcNMTUwNzI5MjIxMjUxWhcNMzUwNzI0MjIxMjUxWjBVMQswCQYD
VQQGEwJVUzEKMAgGA1UECBMBLjEKMAgGA1UEChMBLjEOMAwGA1UEAxMFbWljYWgx
HjAcBgkqhkiG9w0BCQEWD21ybGVkQHlvdW5peC51czCCAiIwDQYJKoZIhvcNAQEB
BQADggIPADCCAgoCggIBANNSTCfbtAeoc163gtfGAOBgGgAd3pGpchY1P3Oj+iG2
BWCHoAg5ep3XmrumBBdU6yUh+8NXRIR+/IIW+zBURG+FH9XpkdgjngRigC1vOuua
eMA1+8lPz1CAVB+h+BgA8N/QHbIBMC83TzVt7qlloy8vElhweBpdtdiXOvnYtkP1
6m0sjaXqt8XMSaLVGQGTpYJt9v+CWmczWwYmGMrNKvdRMDgWlSzomGbWUNnhjmFF
9uQAtWwHJR38v1vd87E13GzFfyDNBV/f4t0q/t5rhXHBl5H/x/cILM5AsV9DP2Dl
9aZYCq59Hz//AorydtcZmWm3hh1ikbBKK04WS/J9AWEqbzfleDJNSnV/K1lzUUk2
G1toj0bbQ3YOW8BFKq0vZZLj11mwC5pDoqdbWQwKpqjX6bQDQT5y7oCqph1/GAfv
/x0fY9AQWi4FyEnrMRKbJPY9XtMUpxeMuIXJCuUXxXwg+bKPk6YZihzu9Kk+yWL7
qRxnkWTruKKKn46QXzfP+fpsiXewYVrn73PeFNpruU8Piv2mqRaHqzgNT3ifuxza
5K/1R2Qqx/KfivflAqrAHTKSRe3G9QTcFxCGkYuqW2p/k8jw5VSllszm/VnEMsAe
TDyRhp8iE9vxO5okYtTAytKmn7JWsFJz8JglsFwB2O4p1gSmDYWzWkhVUo4ugMBp
AgMBAAGjgfkwgfYwCQYDVR0TBAIwADAdBgNVHQ4EFgQUy97e51b/1891aWMPNOhH
GLwwbuIwgakGA1UdIwSBoTCBnoAUOCWwHLcb0s8jweuCdYsbCnE90B6he6R5MHcx
NjA0BgNVBAMTLXlvdW5peCBvcGVudnBuIDIwMTUwNzI5IGNlcnRpZmljYXRlIGF1
dGhvcml0eTEeMBwGCSqGSIb3DQEJARYPbXJsZWRAeW91bml4LnVzMQswCQYDVQQG
EwJVUzEQMA4GA1UEChMHbWluaXBraYIJAK9AuMUZJwedMBEGCWCGSAGG+EIBAQQE
AwIHgDALBgNVHQ8EBAMCBeAwDQYJKoZIhvcNAQEFBQADggIBAIEJKCNUtPeVFHEh
KzcSvq48aUsDXwuyhXXWFRMDDSFNj5dPBD6Mbz6qLWZqHLApJs2isZbVcCPUHN/r
XzfoPsPGT8CsNLBEPGonrnETEuo4BOxtrjn44oyevWbdmU7/ngabwqpYx2nB0Iwc
xK4xRHcfyXD1pwYZKZjcEEE76u5Q2iOhVE9CMRx5GpBJIFrDwVpCPYa0utoAV17e
GZpwoOhNShw+5ApTOaCT5GUYW+lhp/PZvhwcGVfK/fJ+DjURfZCckAI/dQ+hinlJ
LjzIRQx54hA2YEh6S6UST0Kl0z58y/E6poUJrV45NcYgNkLc9qP0CDtWxXhg98Mk
zo790IgO15hiXIWRSQwRM8GZK+YJE9tXMCRJLkwjLPolkkXwnNJ2BDhF2qbbIssA
FYw7NzqSKxatil8timIgEVGIL2q9CX5I4UQTrUAcm8UN1hyNUrz9lmYJ+ERJZiGc
vgBZqhq4oTRFwsrD1SATcsbFMufXouRpzXSNDZ24r7P7FyuOREst2gipNAaB1PT/
ByOwPWyYYMgNdySN4dDLrZUMIueywHf2AgPUGLSZOV8E4SE3nH7kB2uK8z2ICJ17
OJCQ9JDj1ROeTQw9ioqnvqrMAuD7uQCNDuCohkpKcVaq+l2w4jYj2397ae9eZ82Y
VISE7XycoqI8damw626EWdkz0slt
-----END CERTIFICATE-----
