Certificate:
    Data:
        Version: 3 (0x2)
        Serial Number: 1 (0x1)
        Signature Algorithm: sha256WithRSAEncryption
        Issuer: CN=younix vpn 2015
        Validity
            Not Before: Jul 31 16:20:51 2015 GMT
            Not After : Jul 26 16:20:51 2035 GMT
        Subject: CN=vpnserver
        Subject Public Key Info:
            Public Key Algorithm: rsaEncryption
            RSA Public Key: (4096 bit)
                Modulus (4096 bit):
                    00:af:6c:ff:ba:85:79:5d:76:0e:10:db:5f:dc:f6:
                    49:bf:a2:af:d8:74:ac:71:08:e1:67:fa:4c:11:ed:
                    84:d0:c4:89:88:7e:c3:23:78:cf:91:5a:c6:7d:78:
                    80:08:56:76:65:a0:49:9e:d9:ce:6c:b9:17:d0:79:
                    30:cb:44:83:f4:9e:eb:2f:10:27:77:a3:5c:ea:a3:
                    b8:ac:99:2c:02:e6:1d:0d:b7:f3:17:5c:c6:f7:1b:
                    11:e7:d1:56:bf:ba:75:85:45:33:db:a1:3a:81:8d:
                    aa:18:b3:c6:bb:7d:8f:02:c8:68:75:04:60:df:4a:
                    2c:d3:01:9f:f9:53:61:87:ba:a6:a1:cb:9c:f7:39:
                    82:06:31:2b:e6:07:d2:e2:97:23:4f:f5:ea:3f:24:
                    7f:86:b5:0b:20:98:1c:87:96:54:ad:c7:29:40:b0:
                    f9:cc:1c:33:43:be:5d:93:26:46:fc:35:a4:dd:19:
                    9b:bf:30:ff:ec:0f:d3:90:9c:f2:2f:40:7d:ea:ee:
                    07:7d:09:55:f8:94:8a:c4:56:5e:e4:0d:22:9c:9c:
                    97:32:c3:17:e2:a1:b7:f9:e2:f0:5f:ec:66:fe:a0:
                    d4:db:1f:c9:8c:62:7a:47:f3:d7:41:49:7a:8c:64:
                    34:89:c1:36:61:b0:db:45:b8:61:40:84:6c:b0:8e:
                    70:8d:7b:fa:01:07:5c:8a:c1:d5:86:4d:78:3e:80:
                    88:62:56:fd:5a:a7:a6:6a:35:d6:bb:27:fc:e2:9d:
                    49:e1:36:9d:66:7d:22:8b:4b:6f:01:05:0f:15:29:
                    26:12:2b:de:5f:c0:52:fc:76:29:ac:fd:80:df:75:
                    f0:13:e0:15:c8:22:c3:be:95:c6:24:9a:91:08:3b:
                    c7:da:90:eb:d7:dd:f7:3d:91:2c:6e:3a:61:1f:37:
                    fd:3e:3c:41:d5:4b:b7:3e:9b:e5:f2:32:64:db:35:
                    d7:f9:a4:41:d2:40:bf:9b:72:49:15:e7:92:15:ef:
                    3b:2e:b7:af:f9:ff:e1:78:84:c3:27:f4:04:ec:45:
                    bf:81:62:14:be:ca:cb:6b:a5:ca:aa:3a:d0:a2:fc:
                    6a:1b:37:8b:1c:d1:66:b8:f0:c2:b8:68:a6:26:dd:
                    92:56:74:91:6d:3f:38:b4:a9:4f:4e:87:81:df:49:
                    16:f8:8c:73:de:15:2f:04:03:2c:cc:5e:65:c0:93:
                    8e:59:cf:03:21:cb:bf:aa:df:5f:09:1b:56:44:74:
                    2a:8b:1a:ef:c3:69:39:66:33:9f:19:7d:fb:a5:56:
                    9e:b8:3c:b1:47:a7:35:24:ea:8e:8f:b6:13:fd:63:
                    b0:68:29:fa:0c:d3:2a:26:25:d1:09:b0:02:36:e5:
                    6a:0d:cd
                Exponent: 65537 (0x10001)
        X509v3 extensions:
            X509v3 Basic Constraints: 
                CA:FALSE
            X509v3 Subject Key Identifier: 
                D6:5A:8A:8B:66:A9:84:35:93:1A:5D:0F:33:AA:AA:D3:37:00:14:FF
            X509v3 Authority Key Identifier: 
                keyid:97:CA:E1:4B:8E:FE:BB:03:C0:1B:5E:14:0B:EF:BD:C3:FB:77:F0:FA
                DirName:/CN=younix vpn 2015
                serial:98:2A:4A:A2:BC:4B:B2:03

            X509v3 Extended Key Usage: 
                TLS Web Server Authentication
            X509v3 Key Usage: 
                Digital Signature, Key Encipherment
    Signature Algorithm: sha256WithRSAEncryption
        64:8a:e8:00:17:00:eb:c2:c3:19:85:4a:b6:11:3b:65:90:38:
        93:d3:71:51:bc:04:6c:19:8e:b0:87:4e:8e:36:2e:0a:13:4c:
        1b:17:32:43:4b:88:da:3c:46:4e:45:73:51:16:78:b7:f8:13:
        2b:7a:bc:a9:13:77:ff:b0:87:de:9a:48:52:30:dd:a5:8d:00:
        68:c7:14:48:f9:a5:91:5f:79:0c:35:ed:f6:ff:f1:8b:06:32:
        94:b4:8b:ff:96:3e:fe:76:2d:82:fc:ff:a3:bd:3e:59:53:84:
        ab:5a:3f:03:c6:63:56:52:97:10:31:6e:26:5b:49:ae:49:b7:
        08:26:36:1a:e4:b7:07:a4:3e:6d:bb:94:5c:c1:f7:a9:4f:34:
        71:00:fc:4e:b4:e3:3e:2c:cd:11:f6:08:2b:7a:a9:3c:21:ce:
        78:f9:31:fe:de:d7:97:be:6e:7f:16:8d:77:a4:e4:12:27:ca:
        c3:2e:64:41:91:a5:8b:41:75:a7:99:58:54:41:a9:10:a0:0e:
        99:ed:83:52:df:46:b4:ab:6a:de:50:b5:5a:a4:4c:5d:f6:eb:
        1a:9a:45:0a:0c:ee:d6:af:bc:4b:40:3c:6c:09:b4:54:06:d6:
        6a:0c:19:ec:dd:a0:33:dd:05:5f:35:54:3e:57:1c:07:bb:28:
        3f:89:b5:0e:2d:89:83:c8:e3:a2:29:21:c1:1b:d6:7f:c8:6c:
        ea:d7:ba:1a:f1:41:3f:3f:c3:50:37:ed:19:fe:00:9d:83:35:
        72:56:4d:d6:ad:0b:39:e5:07:09:c0:a0:a5:c9:00:d6:bc:ce:
        db:f1:54:ea:c3:16:88:e8:4a:95:0e:3b:0e:a4:e5:2c:fa:b1:
        36:68:f9:3f:f0:00:3d:e1:13:9f:4d:9f:9e:40:83:31:96:30:
        2c:5e:71:ca:dd:85:62:df:7e:3b:77:5f:aa:43:8d:a5:dc:ff:
        72:59:02:4c:dd:fa:89:01:1a:5f:9d:17:0c:20:1e:82:18:4e:
        d6:96:83:db:c6:36:32:27:08:95:29:c8:1a:fb:7f:f9:c2:cd:
        2f:f8:38:2e:af:bc:48:cb:0a:75:16:09:cf:76:52:bc:68:13:
        19:9b:bb:57:93:4f:a0:b8:67:d6:c7:6e:39:8d:42:30:86:be:
        c2:56:90:12:62:80:e9:85:a0:b3:54:97:1f:57:89:76:c1:c5:
        36:7f:50:05:53:bb:2e:ce:0b:3d:8c:49:5c:c4:c6:3d:ca:f1:
        49:82:cd:79:51:b2:68:1d:ad:11:db:75:6e:ab:e5:4c:47:e2:
        4c:ab:65:81:25:ff:ec:a4:e5:ea:f2:10:f6:05:b7:db:6f:4b:
        3d:23:b1:90:58:5e:a0:ea
-----BEGIN CERTIFICATE-----
MIIFRTCCAy2gAwIBAgIBATANBgkqhkiG9w0BAQsFADAaMRgwFgYDVQQDDA95b3Vu
aXggdnBuIDIwMTUwHhcNMTUwNzMxMTYyMDUxWhcNMzUwNzI2MTYyMDUxWjAUMRIw
EAYDVQQDDAl2cG5zZXJ2ZXIwggIiMA0GCSqGSIb3DQEBAQUAA4ICDwAwggIKAoIC
AQCvbP+6hXlddg4Q21/c9km/oq/YdKxxCOFn+kwR7YTQxImIfsMjeM+RWsZ9eIAI
VnZloEme2c5suRfQeTDLRIP0nusvECd3o1zqo7ismSwC5h0Nt/MXXMb3GxHn0Va/
unWFRTPboTqBjaoYs8a7fY8CyGh1BGDfSizTAZ/5U2GHuqahy5z3OYIGMSvmB9Li
lyNP9eo/JH+GtQsgmByHllStxylAsPnMHDNDvl2TJkb8NaTdGZu/MP/sD9OQnPIv
QH3q7gd9CVX4lIrEVl7kDSKcnJcywxfiobf54vBf7Gb+oNTbH8mMYnpH89dBSXqM
ZDSJwTZhsNtFuGFAhGywjnCNe/oBB1yKwdWGTXg+gIhiVv1ap6ZqNda7J/zinUnh
Np1mfSKLS28BBQ8VKSYSK95fwFL8dims/YDfdfAT4BXIIsO+lcYkmpEIO8fakOvX
3fc9kSxuOmEfN/0+PEHVS7c+m+XyMmTbNdf5pEHSQL+bckkV55IV7zsut6/5/+F4
hMMn9ATsRb+BYhS+ystrpcqqOtCi/GobN4sc0Wa48MK4aKYm3ZJWdJFtPzi0qU9O
h4HfSRb4jHPeFS8EAyzMXmXAk45ZzwMhy7+q318JG1ZEdCqLGu/DaTlmM58Zfful
Vp64PLFHpzUk6o6PthP9Y7BoKfoM0yomJdEJsAI25WoNzQIDAQABo4GbMIGYMAkG
A1UdEwQCMAAwHQYDVR0OBBYEFNZaiotmqYQ1kxpdDzOqqtM3ABT/MEoGA1UdIwRD
MEGAFJfK4UuO/rsDwBteFAvvvcP7d/D6oR6kHDAaMRgwFgYDVQQDDA95b3VuaXgg
dnBuIDIwMTWCCQCYKkqivEuyAzATBgNVHSUEDDAKBggrBgEFBQcDATALBgNVHQ8E
BAMCBaAwDQYJKoZIhvcNAQELBQADggIBAGSK6AAXAOvCwxmFSrYRO2WQOJPTcVG8
BGwZjrCHTo42LgoTTBsXMkNLiNo8Rk5Fc1EWeLf4Eyt6vKkTd/+wh96aSFIw3aWN
AGjHFEj5pZFfeQw17fb/8YsGMpS0i/+WPv52LYL8/6O9PllThKtaPwPGY1ZSlxAx
biZbSa5JtwgmNhrktwekPm27lFzB96lPNHEA/E604z4szRH2CCt6qTwhznj5Mf7e
15e+bn8WjXek5BInysMuZEGRpYtBdaeZWFRBqRCgDpntg1LfRrSrat5QtVqkTF32
6xqaRQoM7tavvEtAPGwJtFQG1moMGezdoDPdBV81VD5XHAe7KD+JtQ4tiYPI46Ip
IcEb1n/IbOrXuhrxQT8/w1A37Rn+AJ2DNXJWTdatCznlBwnAoKXJANa8ztvxVOrD
FojoSpUOOw6k5Sz6sTZo+T/wAD3hE59Nn55AgzGWMCxeccrdhWLffjt3X6pDjaXc
/3JZAkzd+okBGl+dFwwgHoIYTtaWg9vGNjInCJUpyBr7f/nCzS/4OC6vvEjLCnUW
Cc92UrxoExmbu1eTT6C4Z9bHbjmNQjCGvsJWkBJigOmFoLNUlx9XiXbBxTZ/UAVT
uy7OCz2MSVzExj3K8UmCzXlRsmgdrRHbdW6r5UxH4kyrZYEl/+yk5eryEPYFt9tv
Sz0jsZBYXqDq
-----END CERTIFICATE-----
