Certificate:
    Data:
        Version: 3 (0x2)
        Serial Number: 2 (0x2)
        Signature Algorithm: sha256WithRSAEncryption
        Issuer: CN=younix vpn 2015
        Validity
            Not Before: Jul 31 16:21:00 2015 GMT
            Not After : Jul 26 16:21:00 2035 GMT
        Subject: CN=genericclient
        Subject Public Key Info:
            Public Key Algorithm: rsaEncryption
            RSA Public Key: (4096 bit)
                Modulus (4096 bit):
                    00:b9:e3:44:50:18:47:29:cb:36:aa:a3:1e:18:c5:
                    3f:ef:5e:ba:7f:99:34:49:45:20:81:71:d1:6d:f7:
                    19:ae:31:ce:e2:0e:b1:7a:15:07:68:d2:19:d8:35:
                    bb:84:e6:45:fe:c1:ba:57:d9:fd:7c:5d:02:7a:fd:
                    e4:b3:1c:82:ff:94:0f:c6:e3:ce:c6:82:19:48:4c:
                    a6:08:40:7b:f7:75:13:0b:a1:70:5b:d1:ec:9a:c6:
                    2f:de:a3:d5:ff:05:ba:99:4c:06:ae:92:a0:c4:34:
                    4f:3e:04:3d:8c:57:48:0f:40:ac:e3:1b:ca:a9:e6:
                    3a:1c:df:d7:83:0c:e9:5f:49:90:c6:a9:58:2a:b4:
                    08:44:0a:7f:81:e5:13:ba:40:a2:ef:9c:00:fb:ac:
                    90:ed:f3:6f:43:c7:64:28:86:21:bb:26:26:2a:9f:
                    cc:e5:f4:dc:2f:65:26:1c:15:ef:db:b1:b8:26:af:
                    a8:c6:cb:bb:55:52:12:01:e0:17:7c:5e:be:af:1c:
                    b3:65:65:f5:13:30:2d:0f:11:d0:ba:2c:af:2d:fb:
                    38:aa:9d:58:db:cc:2a:36:c9:2a:ea:cb:b3:c5:df:
                    fc:5f:bc:15:db:47:fd:d3:87:b3:51:53:d8:9c:6d:
                    3c:34:92:38:3d:58:cb:cf:0a:03:c4:1d:d7:fe:11:
                    22:57:1b:69:07:8c:d1:0c:43:e4:0c:65:19:64:52:
                    19:2d:32:78:6a:df:ec:75:cc:e7:4c:44:8a:c8:2d:
                    1f:98:82:2f:6b:3b:8e:0f:63:d6:6a:4c:2b:ef:11:
                    58:da:b2:91:24:9e:57:50:cb:63:5a:0c:5c:c8:2e:
                    90:20:97:51:54:55:02:a7:fc:28:80:69:1e:7a:91:
                    29:5b:a0:cc:cd:38:85:4b:f5:91:9e:86:04:f7:dd:
                    93:c1:b9:af:c6:91:fc:cb:a8:bd:90:94:fa:a1:de:
                    9e:80:0c:fb:20:14:e0:1b:a2:b4:ef:e5:58:62:d5:
                    c7:26:99:d4:04:e7:74:ac:73:4a:da:9b:e1:44:8e:
                    19:7f:de:fe:6b:06:fa:74:8c:e1:57:c3:e9:8a:f2:
                    63:f7:d4:39:27:32:c3:89:3f:41:ba:9c:36:d1:1f:
                    3f:d7:b5:4f:4c:a9:8a:51:bd:9e:5c:28:6d:26:57:
                    a0:ac:ec:86:b1:d4:fd:e2:f9:6e:86:92:2d:9d:4d:
                    8a:e0:90:93:ca:4d:19:e0:7f:ef:a9:97:b6:11:23:
                    7e:15:b6:6e:6a:97:9e:aa:12:d4:f0:0f:2b:c8:b4:
                    f8:48:c9:7f:24:0c:a4:72:4a:5d:7b:e3:08:24:b8:
                    ed:ab:34:cc:c1:f2:99:16:b4:45:85:b3:71:59:82:
                    4d:1d:d1
                Exponent: 65537 (0x10001)
        X509v3 extensions:
            X509v3 Basic Constraints: 
                CA:FALSE
            X509v3 Subject Key Identifier: 
                6E:BD:0A:B7:91:7F:4D:5F:3E:7F:BB:DE:3E:49:75:15:23:69:EC:B5
            X509v3 Authority Key Identifier: 
                keyid:97:CA:E1:4B:8E:FE:BB:03:C0:1B:5E:14:0B:EF:BD:C3:FB:77:F0:FA
                DirName:/CN=younix vpn 2015
                serial:98:2A:4A:A2:BC:4B:B2:03

            X509v3 Extended Key Usage: 
                TLS Web Client Authentication
            X509v3 Key Usage: 
                Digital Signature
    Signature Algorithm: sha256WithRSAEncryption
        6e:87:bd:c1:30:1c:0d:a9:aa:ec:55:83:4e:3f:f6:a4:2e:06:
        ae:e5:d5:00:24:a3:e7:a7:13:d0:19:22:8f:ea:79:d2:03:18:
        e1:fa:19:37:32:d4:81:1d:5a:e5:1a:d4:2b:57:d3:fa:c7:64:
        e4:9b:6f:a2:3f:de:16:db:9c:68:67:dd:b4:c6:79:82:e2:ae:
        44:d5:b5:34:08:4b:0f:95:51:9e:53:c2:1e:7b:57:3b:5c:28:
        b8:8e:4a:36:f2:cb:c7:0c:0d:d4:ff:e3:8b:18:5b:a5:7a:1e:
        78:b9:b6:17:ce:e3:55:03:e9:32:0a:6e:27:3a:65:82:6f:8b:
        4c:f3:81:14:e1:b5:7f:e0:4f:20:16:57:b8:aa:ab:f5:b5:ec:
        97:e4:06:40:11:61:73:11:f6:e0:dd:56:e0:97:41:a2:08:ea:
        33:fc:32:e1:05:6c:8e:f2:e5:c9:fa:14:c2:81:3d:23:bf:31:
        05:fa:f1:3f:72:26:f5:83:26:6f:ff:62:5e:0e:12:81:cb:1d:
        95:e0:2c:49:2c:c2:b2:f0:e0:e5:f5:5f:83:29:d6:60:dc:68:
        30:7c:d3:39:34:89:ad:3e:88:4b:46:3d:01:c2:fa:f6:26:fe:
        a0:de:b6:ed:46:56:67:ab:b2:ac:66:ad:8e:c4:28:18:49:2d:
        8c:5d:38:97:52:39:a1:85:75:ee:f1:05:f3:ee:7f:b9:ea:0b:
        cf:3e:0f:56:2d:b0:0d:51:82:d8:08:6e:86:10:0d:45:d3:50:
        21:9f:86:56:1b:ba:f6:3c:1c:e4:c9:b8:0f:99:da:5c:5c:9e:
        32:38:b1:56:f7:8b:e8:27:a1:81:54:0b:2b:c8:9e:b7:3c:65:
        ac:bd:50:14:cd:bc:4e:63:97:d5:3b:d4:f5:88:e8:7d:7f:ea:
        cb:9a:77:30:9f:df:94:7a:0b:e2:42:ff:17:18:cd:b6:84:ea:
        e8:09:16:6f:a0:f3:99:2e:e2:97:46:34:1d:d3:db:c1:b1:45:
        a1:bc:0f:5c:16:05:a8:02:46:7d:e6:43:d9:c5:7a:9c:77:04:
        6a:f3:47:17:eb:91:dc:c4:b2:28:4b:6a:a0:89:03:3c:62:df:
        de:ed:6f:30:1c:8f:47:77:e9:a6:44:c8:56:43:45:1a:ce:b6:
        67:5c:08:e6:50:01:30:29:33:f0:57:52:91:23:e5:34:d2:ab:
        24:54:df:58:d4:42:c0:57:12:5c:d7:96:15:de:cd:61:0e:a4:
        3a:c3:66:f5:02:7b:06:b1:a6:27:c9:f1:7d:98:37:f7:ef:3a:
        c1:ad:76:e5:41:4d:e0:8d:c3:4b:79:46:de:3a:7b:62:d9:26:
        21:23:07:39:cc:2c:14:b3
-----BEGIN CERTIFICATE-----
MIIFSTCCAzGgAwIBAgIBAjANBgkqhkiG9w0BAQsFADAaMRgwFgYDVQQDDA95b3Vu
aXggdnBuIDIwMTUwHhcNMTUwNzMxMTYyMTAwWhcNMzUwNzI2MTYyMTAwWjAYMRYw
FAYDVQQDDA1nZW5lcmljY2xpZW50MIICIjANBgkqhkiG9w0BAQEFAAOCAg8AMIIC
CgKCAgEAueNEUBhHKcs2qqMeGMU/7166f5k0SUUggXHRbfcZrjHO4g6xehUHaNIZ
2DW7hOZF/sG6V9n9fF0Cev3ksxyC/5QPxuPOxoIZSEymCEB793UTC6FwW9HsmsYv
3qPV/wW6mUwGrpKgxDRPPgQ9jFdID0Cs4xvKqeY6HN/XgwzpX0mQxqlYKrQIRAp/
geUTukCi75wA+6yQ7fNvQ8dkKIYhuyYmKp/M5fTcL2UmHBXv27G4Jq+oxsu7VVIS
AeAXfF6+rxyzZWX1EzAtDxHQuiyvLfs4qp1Y28wqNskq6suzxd/8X7wV20f904ez
UVPYnG08NJI4PVjLzwoDxB3X/hEiVxtpB4zRDEPkDGUZZFIZLTJ4at/sdcznTESK
yC0fmIIvazuOD2PWakwr7xFY2rKRJJ5XUMtjWgxcyC6QIJdRVFUCp/wogGkeepEp
W6DMzTiFS/WRnoYE992TwbmvxpH8y6i9kJT6od6egAz7IBTgG6K07+VYYtXHJpnU
BOd0rHNK2pvhRI4Zf97+awb6dIzhV8PpivJj99Q5JzLDiT9Bupw20R8/17VPTKmK
Ub2eXChtJlegrOyGsdT94vluhpItnU2K4JCTyk0Z4H/vqZe2ESN+FbZuapeeqhLU
8A8ryLT4SMl/JAykckpde+MIJLjtqzTMwfKZFrRFhbNxWYJNHdECAwEAAaOBmzCB
mDAJBgNVHRMEAjAAMB0GA1UdDgQWBBRuvQq3kX9NXz5/u94+SXUVI2nstTBKBgNV
HSMEQzBBgBSXyuFLjv67A8AbXhQL773D+3fw+qEepBwwGjEYMBYGA1UEAwwPeW91
bml4IHZwbiAyMDE1ggkAmCpKorxLsgMwEwYDVR0lBAwwCgYIKwYBBQUHAwIwCwYD
VR0PBAQDAgeAMA0GCSqGSIb3DQEBCwUAA4ICAQBuh73BMBwNqarsVYNOP/akLgau
5dUAJKPnpxPQGSKP6nnSAxjh+hk3MtSBHVrlGtQrV9P6x2Tkm2+iP94W25xoZ920
xnmC4q5E1bU0CEsPlVGeU8Iee1c7XCi4jko28svHDA3U/+OLGFuleh54ubYXzuNV
A+kyCm4nOmWCb4tM84EU4bV/4E8gFle4qqv1teyX5AZAEWFzEfbg3Vbgl0GiCOoz
/DLhBWyO8uXJ+hTCgT0jvzEF+vE/cib1gyZv/2JeDhKByx2V4CxJLMKy8ODl9V+D
KdZg3GgwfNM5NImtPohLRj0Bwvr2Jv6g3rbtRlZnq7KsZq2OxCgYSS2MXTiXUjmh
hXXu8QXz7n+56gvPPg9WLbANUYLYCG6GEA1F01Ahn4ZWG7r2PBzkybgPmdpcXJ4y
OLFW94voJ6GBVAsryJ63PGWsvVAUzbxOY5fVO9T1iOh9f+rLmncwn9+UegviQv8X
GM22hOroCRZvoPOZLuKXRjQd09vBsUWhvA9cFgWoAkZ95kPZxXqcdwRq80cX65Hc
xLIoS2qgiQM8Yt/e7W8wHI9Hd+mmRMhWQ0UazrZnXAjmUAEwKTPwV1KRI+U00qsk
VN9Y1ELAVxJc15YV3s1hDqQ6w2b1AnsGsaYnyfF9mDf37zrBrXblQU3gjcNLeUbe
Onti2SYhIwc5zCwUsw==
-----END CERTIFICATE-----
